target datalayout = "e-m:e-p270:32:32-p271:32:32-p272:64:64-i64:64-i128:128-f80:128-n8:16:32:64-S128"
target triple = "x86_64-pc-linux-gnu"

%"class.absl::synchronization_internal::SemWaiter" = type <{ %union.sem_t, %"struct.std::atomic", [4 x i8] }>
%union.sem_t = type { i64, [24 x i8] }
%"struct.std::atomic" = type { %"struct.std::__atomic_base" }
%"struct.std::__atomic_base" = type { i32 }
%"class.absl::synchronization_internal::KernelTimeout" = type { i64 }
%struct.timespec = type { i64, i64 }

; Function Attrs: mustprogress nounwind uwtable
define linkonce_odr dso_local noundef zeroext i1 @_ZNK4absl24synchronization_internal13KernelTimeout19is_relative_timeoutEv(ptr noundef nonnull align 8 dereferenceable(8) %0) #1 comdat align 2 {
  %2 = alloca ptr, align 8
  store ptr %0, ptr %2, align 8, !tbaa !15
  %3 = load ptr, ptr %2, align 8
  %4 = getelementptr inbounds nuw %"class.absl::synchronization_internal::KernelTimeout", ptr %3, i32 0, i32 0
  %5 = load i64, ptr %4, align 8, !tbaa !17
  %6 = and i64 %5, 1
  %7 = icmp eq i64 %6, 1
  ret i1 %7
}

; Function Attrs: mustprogress uwtable
define dso_local noundef i32 @_ZN4absl24synchronization_internal9SemWaiter9TimedWaitENS0_13KernelTimeoutE(ptr noundef nonnull align 8 dereferenceable(36) %0, i64 %1) #0 align 2 {
  %3 = alloca i32, align 4
  %4 = alloca %"class.absl::synchronization_internal::KernelTimeout", align 8
  %5 = alloca ptr, align 8
  %6 = alloca %struct.timespec, align 8
  %7 = alloca %struct.timespec, align 8
  %8 = getelementptr inbounds nuw %"class.absl::synchronization_internal::KernelTimeout", ptr %4, i32 0, i32 0
  store i64 %1, ptr %8, align 8
  store ptr %0, ptr %5, align 8, !tbaa !4
  %9 = load ptr, ptr %5, align 8
  %10 = call noundef zeroext i1 @_ZNK4absl24synchronization_internal13KernelTimeout19is_relative_timeoutEv(ptr noundef nonnull align 8 dereferenceable(8) %4)
  br i1 %10, label %11, label %19

11:                                               ; preds = %2
  call void @llvm.lifetime.start.p0(i64 16, ptr %6) #9
  %12 = call { i64, i64 } @_ZNK4absl24synchronization_internal13KernelTimeout25MakeClockAbsoluteTimespecEi(ptr noundef nonnull align 8 dereferenceable(8) %4, i32 noundef 1)
  %13 = getelementptr inbounds nuw { i64, i64 }, ptr %6, i32 0, i32 0
  %14 = extractvalue { i64, i64 } %12, 0
  store i64 %14, ptr %13, align 8
  %15 = getelementptr inbounds nuw { i64, i64 }, ptr %6, i32 0, i32 1
  %16 = extractvalue { i64, i64 } %12, 1
  store i64 %16, ptr %15, align 8
  %17 = getelementptr inbounds nuw %"class.absl::synchronization_internal::SemWaiter", ptr %9, i32 0, i32 0
  %18 = call i32 @sem_clockwait(ptr noundef %17, i32 noundef 1, ptr noundef %6)
  store i32 %18, ptr %3, align 4
  call void @llvm.lifetime.end.p0(i64 16, ptr %6) #9
  br label %27

19:                                               ; preds = %2
  call void @llvm.lifetime.start.p0(i64 16, ptr %7) #9
  %20 = call { i64, i64 } @_ZNK4absl24synchronization_internal13KernelTimeout15MakeAbsTimespecEv(ptr noundef nonnull align 8 dereferenceable(8) %4)
  %21 = getelementptr inbounds nuw { i64, i64 }, ptr %7, i32 0, i32 0
  %22 = extractvalue { i64, i64 } %20, 0
  store i64 %22, ptr %21, align 8
  %23 = getelementptr inbounds nuw { i64, i64 }, ptr %7, i32 0, i32 1
  %24 = extractvalue { i64, i64 } %20, 1
  store i64 %24, ptr %23, align 8
  %25 = getelementptr inbounds nuw %"class.absl::synchronization_internal::SemWaiter", ptr %9, i32 0, i32 0
  %26 = call i32 @sem_timedwait(ptr noundef %25, ptr noundef %7)
  store i32 %26, ptr %3, align 4
  call void @llvm.lifetime.end.p0(i64 16, ptr %7) #9
  br label %27

27:                                               ; preds = %19, %11
  %28 = load i32, ptr %3, align 4
  ret i32 %28
}