; Function Attrs: mustprogress uwtable
define dso_local noundef i32 @_ZN4absl24synchronization_internal9SemWaiter9TimedWaitENS0_13KernelTimeoutE(ptr noundef nonnull align 8 dereferenceable(36) %0, i64 %1) local_unnamed_addr #0 align 2 {
  %3 = alloca %"class.absl::synchronization_internal::KernelTimeout", align 8
  %4 = alloca %struct.timespec, align 8
  %5 = alloca %struct.timespec, align 8
  store i64 %1, ptr %3, align 8
  %6 = and i64 %1, 1
  %.not = icmp eq i64 %6, 0
  br i1 %.not, label %13, label %7

7:                                                ; preds = %2
  call void @llvm.lifetime.start.p0(i64 16, ptr nonnull %4) #5
  %8 = call { i64, i64 } @_ZNK4absl24synchronization_internal13KernelTimeout25MakeClockAbsoluteTimespecEi(ptr noundef nonnull align 8 dereferenceable(8) %3, i32 noundef 1)
  %9 = extractvalue { i64, i64 } %8, 0
  store i64 %9, ptr %4, align 8
  %10 = getelementptr inbounds nuw i8, ptr %4, i64 8
  %11 = extractvalue { i64, i64 } %8, 1
  store i64 %11, ptr %10, align 8
  %12 = call i32 @sem_clockwait(ptr noundef nonnull %0, i32 noundef 1, ptr noundef nonnull %4)
  call void @llvm.lifetime.end.p0(i64 16, ptr nonnull %4) #5
  br label %19

13:                                               ; preds = %2
  call void @llvm.lifetime.start.p0(i64 16, ptr nonnull %5) #5
  %14 = call { i64, i64 } @_ZNK4absl24synchronization_internal13KernelTimeout15MakeAbsTimespecEv(ptr noundef nonnull align 8 dereferenceable(8) %3)
  %15 = extractvalue { i64, i64 } %14, 0
  store i64 %15, ptr %5, align 8
  %16 = getelementptr inbounds nuw i8, ptr %5, i64 8
  %17 = extractvalue { i64, i64 } %14, 1
  store i64 %17, ptr %16, align 8
  %18 = call i32 @sem_timedwait(ptr noundef nonnull %0, ptr noundef nonnull %5)
  call void @llvm.lifetime.end.p0(i64 16, ptr nonnull %5) #5
  br label %19

19:                                               ; preds = %13, %7
  %.0 = phi i32 [ %12, %7 ], [ %18, %13 ]
  ret i32 %.0
}